; ModuleID = '43/554.c'
source_filename = "43/554.c"
target datalayout = "e-m:e-p270:32:32-p271:32:32-p272:64:64-i64:64-f80:128-n8:16:32:64-S128"
target triple = "x86_64-pc-linux-gnu"

@.str = private unnamed_addr constant [3 x i8] c"%d\00", align 1
@.str.1 = private unnamed_addr constant [7 x i8] c"%d %d\0A\00", align 1

; Function Attrs: noinline nounwind uwtable
define dso_local i32 @prime(i32 %0) #0 {
  %2 = alloca i32, align 4
  %3 = alloca i32, align 4
  %4 = alloca i32, align 4
  %5 = alloca i32, align 4
  store i32 %0, i32* %3, align 4
  %6 = load i32, i32* %3, align 4
  %7 = icmp eq i32 %6, 1
  br i1 %7, label %8, label %9

8:                                                ; preds = %1
  store i32 0, i32* %2, align 4
  br label %29

9:                                                ; preds = %1
  %10 = load i32, i32* %3, align 4
  %11 = sitofp i32 %10 to double
  %12 = call double @sqrt(double %11) #3
  %13 = fptosi double %12 to i32
  store i32 %13, i32* %5, align 4
  store i32 2, i32* %4, align 4
  br label %14

14:                                               ; preds = %25, %9
  %15 = load i32, i32* %4, align 4
  %16 = load i32, i32* %5, align 4
  %17 = icmp sle i32 %15, %16
  br i1 %17, label %18, label %28

18:                                               ; preds = %14
  %19 = load i32, i32* %3, align 4
  %20 = load i32, i32* %4, align 4
  %21 = srem i32 %19, %20
  %22 = icmp eq i32 %21, 0
  br i1 %22, label %23, label %24

23:                                               ; preds = %18
  store i32 0, i32* %2, align 4
  br label %29

24:                                               ; preds = %18
  br label %25

25:                                               ; preds = %24
  %26 = load i32, i32* %4, align 4
  %27 = add nsw i32 %26, 1
  store i32 %27, i32* %4, align 4
  br label %14

28:                                               ; preds = %14
  store i32 1, i32* %2, align 4
  br label %29

29:                                               ; preds = %28, %23, %8
  %30 = load i32, i32* %2, align 4
  ret i32 %30
}

; Function Attrs: nounwind
declare dso_local double @sqrt(double) #1

; Function Attrs: noinline nounwind uwtable
define dso_local void @main() #0 {
  %1 = alloca i32, align 4
  %2 = alloca i32, align 4
  %3 = call i32 (i8*, ...) @__isoc99_scanf(i8* getelementptr inbounds ([3 x i8], [3 x i8]* @.str, i64 0, i64 0), i32* %2)
  store i32 3, i32* %1, align 4
  br label %4

4:                                                ; preds = %26, %0
  %5 = load i32, i32* %1, align 4
  %6 = load i32, i32* %2, align 4
  %7 = sdiv i32 %6, 2
  %8 = icmp sle i32 %5, %7
  br i1 %8, label %9, label %29

9:                                                ; preds = %4
  %10 = load i32, i32* %1, align 4
  %11 = call i32 @prime(i32 %10)
  %12 = icmp ne i32 %11, 0
  br i1 %12, label %13, label %25

13:                                               ; preds = %9
  %14 = load i32, i32* %2, align 4
  %15 = load i32, i32* %1, align 4
  %16 = sub nsw i32 %14, %15
  %17 = call i32 @prime(i32 %16)
  %18 = icmp ne i32 %17, 0
  br i1 %18, label %19, label %25

19:                                               ; preds = %13
  %20 = load i32, i32* %1, align 4
  %21 = load i32, i32* %2, align 4
  %22 = load i32, i32* %1, align 4
  %23 = sub nsw i32 %21, %22
  %24 = call i32 (i8*, ...) @printf(i8* getelementptr inbounds ([7 x i8], [7 x i8]* @.str.1, i64 0, i64 0), i32 %20, i32 %23)
  br label %26

25:                                               ; preds = %13, %9
  br label %26

26:                                               ; preds = %25, %19
  %27 = load i32, i32* %1, align 4
  %28 = add nsw i32 %27, 2
  store i32 %28, i32* %1, align 4
  br label %4

29:                                               ; preds = %4
  ret void
}

declare dso_local i32 @__isoc99_scanf(i8*, ...) #2

declare dso_local i32 @printf(i8*, ...) #2


!llvm.module.flags = !{!0}
!llvm.ident = !{!1}

!0 = !{i32 1, !"wchar_size", i32 4}
!1 = !{!"clang version 10.0.0-4ubuntu1 "}
